ccopy_reg
_reconstructor
p0
(crequests.cookies
RequestsCookieJar
p1
c__builtin__
object
p2
Ntp3
Rp4
(dp5
S'_now'
p6
I1473216059
sS'_policy'
p7
(icookielib
DefaultCookiePolicy
p8
(dp9
S'strict_rfc2965_unverifiable'
p10
I01
sS'strict_ns_domain'
p11
I0
sS'_allowed_domains'
p12
NsS'rfc2109_as_netscape'
p13
NsS'rfc2965'
p14
I00
sS'strict_domain'
p15
I00
sg6
I1473216059
sS'strict_ns_set_path'
p16
I00
sS'strict_ns_unverifiable'
p17
I00
sS'strict_ns_set_initial_dollar'
p18
I00
sS'hide_cookie2'
p19
I00
sS'_blocked_domains'
p20
(tsS'netscape'
p21
I01
sbsS'_cookies'
p22
(dp23
S'h.highpin.cn'
p24
(dp25
S'/'
p26
(dp27
S'NSC_ijhiqjo-172.19.0.190'
p28
(icookielib
Cookie
p29
(dp30
S'comment'
p31
NsS'domain'
p32
g24
sS'name'
p33
g28
sS'domain_initial_dot'
p34
I00
sS'expires'
p35
I1473216360
sS'value'
p36
S'ffffffffaf1b1cd845525d5f4f58455e445a4a423660'
p37
sS'domain_specified'
p38
I00
sS'_rest'
p39
(dp40
S'httponly'
p41
NssS'version'
p42
I0
sS'port_specified'
p43
I00
sS'rfc2109'
p44
I00
sS'discard'
p45
I00
sS'path_specified'
p46
I01
sS'path'
p47
g26
sS'port'
p48
NsS'comment_url'
p49
NsS'secure'
p50
I00
sbsssS'.highpin.cn'
p51
(dp52
g26
(dp53
S'hunter'
p54
(icookielib
Cookie
p55
(dp56
g31
Nsg32
g51
sg33
g54
sg34
I00
sg35
Nsg36
S'hunter=1A73466628750F731067057710680F7310662075287351675077506850735D665C755B735F6748772B68007309660C754E73496748774068047351664C750E7310674F770468517341660C75557356670B77566844735D660C754E735F67487729680E730366007502733A671A7747685B7346665B755D73426744775468517354664775597342674477546855735C664B7540735167237716682D730B660E7505731D672C7717680E730966287508731E6703770B6843735E660F750D731F67197700684D73466620751F7326671977006822730C6608751873516750771168137311660C7511735&HConstID=H999999&HID=H024F4B49593153277B49'
p57
sg38
I01
sg39
(dp58
sg42
I0
sg43
I00
sg44
I00
sg45
I01
sg46
I01
sg47
g26
sg48
Nsg49
Nsg50
I00
sbssssb.