ccopy_reg
_reconstructor
p0
(crequests.cookies
RequestsCookieJar
p1
c__builtin__
object
p2
Ntp3
Rp4
(dp5
S'_now'
p6
I1473225967
sS'_policy'
p7
(icookielib
DefaultCookiePolicy
p8
(dp9
S'strict_rfc2965_unverifiable'
p10
I01
sS'strict_ns_domain'
p11
I0
sS'_allowed_domains'
p12
NsS'rfc2109_as_netscape'
p13
NsS'rfc2965'
p14
I00
sS'strict_domain'
p15
I00
sg6
I1473225967
sS'strict_ns_set_path'
p16
I00
sS'strict_ns_unverifiable'
p17
I00
sS'strict_ns_set_initial_dollar'
p18
I00
sS'hide_cookie2'
p19
I00
sS'_blocked_domains'
p20
(tsS'netscape'
p21
I01
sbsS'_cookies'
p22
(dp23
S'h.highpin.cn'
p24
(dp25
S'/'
p26
(dp27
S'NSC_ijhiqjo-172.19.0.190'
p28
(icookielib
Cookie
p29
(dp30
S'comment'
p31
NsS'domain'
p32
g24
sS'name'
p33
g28
sS'domain_initial_dot'
p34
I00
sS'expires'
p35
I1473226268
sS'value'
p36
S'ffffffffaf1b1cd845525d5f4f58455e445a4a423660'
p37
sS'domain_specified'
p38
I00
sS'_rest'
p39
(dp40
S'httponly'
p41
NssS'version'
p42
I0
sS'port_specified'
p43
I00
sS'rfc2109'
p44
I00
sS'discard'
p45
I00
sS'path_specified'
p46
I01
sS'path'
p47
g26
sS'port'
p48
NsS'comment_url'
p49
NsS'secure'
p50
I00
sbsssS'.highpin.cn'
p51
(dp52
g26
(dp53
S'hunter'
p54
(icookielib
Cookie
p55
(dp56
g31
Nsg32
g51
sg33
g54
sg34
I00
sg35
Nsg36
S'hunter=1A7346732566106405731C671F770B6815732D73206651645C7346675D775C685773547348665164287312670777006843735E7346665664037347674F770768007341735C661664437316675F7740685973517341664B645F7356670F77516844730673076656645F73156748774968437328730B6614640F731D672377156843735E73466641645773426744775468517354734A66466457735D675B77516859734673486651642F73006726770A6806730D730A66356414731C6707772468057309730D661D64447349670C7704680D73177301665F6444733A67197730681273017327661B640773076748775F6815731673116616641B733&HConstID=H999999&HID=H024F4D49593150277C49'
p57
sg38
I01
sg39
(dp58
sg42
I0
sg43
I00
sg44
I00
sg45
I01
sg46
I01
sg47
g26
sg48
Nsg49
Nsg50
I00
sbssssb.