ccopy_reg
_reconstructor
p0
(crequests.cookies
RequestsCookieJar
p1
c__builtin__
object
p2
Ntp3
Rp4
(dp5
S'_now'
p6
I1473049537
sS'_policy'
p7
(icookielib
DefaultCookiePolicy
p8
(dp9
S'strict_rfc2965_unverifiable'
p10
I01
sS'strict_ns_domain'
p11
I0
sS'_allowed_domains'
p12
NsS'rfc2109_as_netscape'
p13
NsS'rfc2965'
p14
I00
sS'strict_domain'
p15
I00
sg6
I1473049537
sS'strict_ns_set_path'
p16
I00
sS'strict_ns_unverifiable'
p17
I00
sS'strict_ns_set_initial_dollar'
p18
I00
sS'hide_cookie2'
p19
I00
sS'_blocked_domains'
p20
(tsS'netscape'
p21
I01
sbsS'_cookies'
p22
(dp23
S'.zhaopin.com'
p24
(dp25
S'/'
p26
(dp27
S'NewPinUserInfo'
p28
(icookielib
Cookie
p29
(dp30
S'comment'
p31
NsS'domain'
p32
S'.zhaopin.com'
p33
sS'name'
p34
g28
sS'domain_initial_dot'
p35
I00
sS'expires'
p36
NsS'value'
p37
S''
p38
sS'domain_specified'
p39
I01
sS'_rest'
p40
(dp41
sS'version'
p42
I0
sS'port_specified'
p43
I00
sS'rfc2109'
p44
I00
sS'discard'
p45
I01
sS'path_specified'
p46
I01
sS'path'
p47
g26
sS'port'
p48
NsS'comment_url'
p49
NsS'secure'
p50
I00
sbsS'cgmark'
p51
(icookielib
Cookie
p52
(dp53
g31
Nsg32
S'.zhaopin.com'
p54
sg34
g51
sg35
I00
sg36
Nsg37
S'2'
p55
sg39
I01
sg40
(dp56
sg42
I0
sg43
I00
sg44
I00
sg45
I01
sg46
I01
sg47
g26
sg48
Nsg49
Nsg50
I00
sbsS'utype'
p57
(icookielib
Cookie
p58
(dp59
g31
Nsg32
g24
sg34
g57
sg35
I00
sg36
I1475596800
sg37
g55
sg39
I01
sg40
(dp60
sg42
I0
sg43
I00
sg44
I00
sg45
I00
sg46
I01
sg47
g26
sg48
Nsg49
Nsg50
I00
sbsS'isNewUser'
p61
(icookielib
Cookie
p62
(dp63
g31
Nsg32
S'.zhaopin.com'
p64
sg34
g61
sg35
I00
sg36
Nsg37
S'1'
p65
sg39
I01
sg40
(dp66
sg42
I0
sg43
I00
sg44
I00
sg45
I01
sg46
I01
sg47
g26
sg48
Nsg49
Nsg50
I00
sbsS'RDsUserInfo'
p67
(icookielib
Cookie
p68
(dp69
g31
Nsg32
S'.zhaopin.com'
p70
sg34
S'RDsUserInfo'
p71
sg35
I00
sg36
Nsg37
S'347320664E73516A4065586140645073426753775C6850735F663F73296A4A6503611464157345675D77516854735D664173556A45651F61486433733D675777EEFE7E3C7AF14873256A336555614564517347675F775C685373566641735C6A356526614E643C20830BAEE18B0049737335DF3D4E6A261AB41FA21DE6117A003AE1093999205F6627732A6A4A65536136642B734E675E7751685373576645735E6A43655C61336417730267447706680E7309664873346A2365556142645D7332673E775868587349664673476A46655A6149645473466751772168257359664573506A43655D614A645473416758775E6825732A664E733D398709ACF79D0C4E736434C6394C68300CB818A20AE7087E0238F71F359E204867267728685C7354664373576A46655361306422734E675F77566851735F662673336A4A655961436457734867297724685C7327663073516A40655C6146645F7341675877576856735F663773266A4A652B613064507344675E775068587356664173556A40655361376425734E675A775E6832732D664E73546A4C65216123645B7341675E7757684F7355664273566A4C6529613F645B73436751771'
p72
sg39
I01
sg40
(dp73
sg42
I0
sg43
I00
sg44
I00
sg45
I01
sg46
I01
sg47
g26
sg48
Nsg49
Nsg50
I00
sbsS'RDpUserInfo'
p74
(icookielib
Cookie
p75
(dp76
g31
Nsg32
S'.zhaopin.com'
p77
sg34
g74
sg35
I00
sg36
Nsg37
g38
sg39
I01
sg40
(dp78
sg42
I0
sg43
I00
sg44
I00
sg45
I01
sg46
I01
sg47
g26
sg48
Nsg49
Nsg50
I00
sbsS'JsNewlogin'
p79
(icookielib
Cookie
p80
(dp81
g31
Nsg32
S'.zhaopin.com'
p82
sg34
g79
sg35
I00
sg36
Nsg37
S'670361991'
p83
sg39
I01
sg40
(dp84
sg42
I0
sg43
I00
sg44
I00
sg45
I01
sg46
I01
sg47
g26
sg48
Nsg49
Nsg50
I00
sbsS'NewPinLoginInfo'
p85
(icookielib
Cookie
p86
(dp87
g31
Nsg32
S'.zhaopin.com'
p88
sg34
g85
sg35
I00
sg36
Nsg37
g38
sg39
I01
sg40
(dp89
sg42
I0
sg43
I00
sg44
I00
sg45
I01
sg46
I01
sg47
g26
sg48
Nsg49
Nsg50
I00
sbssssb.