ccopy_reg
_reconstructor
p0
(crequests.cookies
RequestsCookieJar
p1
c__builtin__
object
p2
Ntp3
Rp4
(dp5
S'_now'
p6
I1479369930
sS'_policy'
p7
(icookielib
DefaultCookiePolicy
p8
(dp9
S'strict_rfc2965_unverifiable'
p10
I01
sS'strict_ns_domain'
p11
I0
sS'_allowed_domains'
p12
NsS'rfc2109_as_netscape'
p13
NsS'rfc2965'
p14
I00
sS'strict_domain'
p15
I00
sg6
I1479369930
sS'strict_ns_set_path'
p16
I00
sS'strict_ns_unverifiable'
p17
I00
sS'strict_ns_set_initial_dollar'
p18
I00
sS'hide_cookie2'
p19
I00
sS'_blocked_domains'
p20
(tsS'netscape'
p21
I01
sbsS'_cookies'
p22
(dp23
S'.zhaopin.com'
p24
(dp25
S'/'
p26
(dp27
S'NewPinUserInfo'
p28
(icookielib
Cookie
p29
(dp30
S'comment'
p31
NsS'domain'
p32
S'.zhaopin.com'
p33
sS'name'
p34
g28
sS'domain_initial_dot'
p35
I00
sS'expires'
p36
NsS'value'
p37
S''
p38
sS'domain_specified'
p39
I01
sS'_rest'
p40
(dp41
sS'version'
p42
I0
sS'port_specified'
p43
I00
sS'rfc2109'
p44
I00
sS'discard'
p45
I01
sS'path_specified'
p46
I01
sS'path'
p47
g26
sS'port'
p48
NsS'comment_url'
p49
NsS'secure'
p50
I00
sbsS'RDsUserInfo'
p51
(icookielib
Cookie
p52
(dp53
g31
Nsg32
S'.zhaopin.com'
p54
sg34
S'RDsUserInfo'
p55
sg35
I00
sg36
Nsg37
S'266422644E67416550735C66547350775C674164516444674C652B732A6659731D771C6707641F644367476556735F663173297758674864246437674A65527351665073557754674264546441674C6525732A6659737024C92999E557115A3EF03E360CB818E41148106C0023F20A358B344C6533732966597356772367486423643E674A6555735066517351775367336417640267596504730B6609735C77366727645B6442674C65267330665973567754675E64576444675765567352665E7352775E67376422644E674265527350665673567754674164546448673365297359667320CB398FE642114F3DF43C261ABB0DE4044B146E1035F11F359E3748673B652A73596654735777556742645D64306733655A735166577357775E67266432644E674665577357665F73247724674E64256430674265527350665673567754674164546446674C65237325665973247726674664536447674565567355665673557750674864226430674A6557735F6637732E77586740645D643A6727655A735666507355774B674264576442674C6526732866597357775E670'
p56
sg39
I01
sg40
(dp57
sg42
I0
sg43
I00
sg44
I00
sg45
I01
sg46
I01
sg47
g26
sg48
Nsg49
Nsg50
I00
sbsS'cgmark'
p58
(icookielib
Cookie
p59
(dp60
g31
Nsg32
S'.zhaopin.com'
p61
sg34
g58
sg35
I00
sg36
Nsg37
S'2'
p62
sg39
I01
sg40
(dp63
sg42
I0
sg43
I00
sg44
I00
sg45
I01
sg46
I01
sg47
g26
sg48
Nsg49
Nsg50
I00
sbsS'utype'
p64
(icookielib
Cookie
p65
(dp66
g31
Nsg32
g24
sg34
g64
sg35
I00
sg36
I1481904000
sg37
S'0'
p67
sg39
I01
sg40
(dp68
sg42
I0
sg43
I00
sg44
I00
sg45
I00
sg46
I01
sg47
g26
sg48
Nsg49
Nsg50
I00
sbsS'isNewUser'
p69
(icookielib
Cookie
p70
(dp71
g31
Nsg32
S'.zhaopin.com'
p72
sg34
g69
sg35
I00
sg36
Nsg37
S'1'
p73
sg39
I01
sg40
(dp74
sg42
I0
sg43
I00
sg44
I00
sg45
I01
sg46
I01
sg47
g26
sg48
Nsg49
Nsg50
I00
sbsS'NewPinLoginInfo'
p75
(icookielib
Cookie
p76
(dp77
g31
Nsg32
S'.zhaopin.com'
p78
sg34
g75
sg35
I00
sg36
Nsg37
g38
sg39
I01
sg40
(dp79
sg42
I0
sg43
I00
sg44
I00
sg45
I01
sg46
I01
sg47
g26
sg48
Nsg49
Nsg50
I00
sbsS'RDpUserInfo'
p80
(icookielib
Cookie
p81
(dp82
g31
Nsg32
S'.zhaopin.com'
p83
sg34
g80
sg35
I00
sg36
Nsg37
g38
sg39
I01
sg40
(dp84
sg42
I0
sg43
I00
sg44
I00
sg45
I01
sg46
I01
sg47
g26
sg48
Nsg49
Nsg50
I00
sbsS'JsNewlogin'
p85
(icookielib
Cookie
p86
(dp87
g31
Nsg32
S'.zhaopin.com'
p88
sg34
g85
sg35
I00
sg36
Nsg37
S'678079277'
p89
sg39
I01
sg40
(dp90
sg42
I0
sg43
I00
sg44
I00
sg45
I01
sg46
I01
sg47
g26
sg48
Nsg49
Nsg50
I00
sbsS'client%2Dauth%2Dtoken'
p91
(icookielib
Cookie
p92
(dp93
g31
Nsg32
S'.zhaopin.com'
p94
sg34
g91
sg35
I00
sg36
Nsg37
g38
sg39
I01
sg40
(dp95
sg42
I0
sg43
I00
sg44
I00
sg45
I01
sg46
I01
sg47
g26
sg48
Nsg49
Nsg50
I00
sbssssb.