ccopy_reg
_reconstructor
p0
(crequests.cookies
RequestsCookieJar
p1
c__builtin__
object
p2
Ntp3
Rp4
(dp5
S'_now'
p6
I1473061293
sS'_policy'
p7
(icookielib
DefaultCookiePolicy
p8
(dp9
S'strict_rfc2965_unverifiable'
p10
I01
sS'strict_ns_domain'
p11
I0
sS'_allowed_domains'
p12
NsS'rfc2109_as_netscape'
p13
NsS'rfc2965'
p14
I00
sS'strict_domain'
p15
I00
sg6
I1473061293
sS'strict_ns_set_path'
p16
I00
sS'strict_ns_unverifiable'
p17
I00
sS'strict_ns_set_initial_dollar'
p18
I00
sS'hide_cookie2'
p19
I00
sS'_blocked_domains'
p20
(tsS'netscape'
p21
I01
sbsS'_cookies'
p22
(dp23
S'.zhaopin.com'
p24
(dp25
S'/'
p26
(dp27
S'xychkcontr'
p28
(icookielib
Cookie
p29
(dp30
S'comment'
p31
NsS'domain'
p32
S'.zhaopin.com'
p33
sS'name'
p34
g28
sS'domain_initial_dot'
p35
I01
sS'expires'
p36
NsS'value'
p37
S'70329032%2c0'
p38
sS'domain_specified'
p39
I01
sS'_rest'
p40
(dp41
sS'version'
p42
I0
sS'port_specified'
p43
I00
sS'rfc2109'
p44
I00
sS'discard'
p45
I01
sS'path_specified'
p46
I01
sS'path'
p47
g26
sS'port'
p48
NsS'comment_url'
p49
NsS'secure'
p50
I00
sbsS'JsOrglogin'
p51
(icookielib
Cookie
p52
(dp53
g31
Nsg32
g24
sg34
g51
sg35
I01
sg36
I1473072096
sg37
S'610588052'
p54
sg39
I01
sg40
(dp55
sg42
I0
sg43
I00
sg44
I00
sg45
I00
sg46
I01
sg47
g26
sg48
Nsg49
Nsg50
I00
sbsS'RDsUserInfo'
p56
(icookielib
Cookie
p57
(dp58
g31
Nsg32
S'.zhaopin.com'
p59
sg34
g56
sg35
I01
sg36
Nsg37
S'347320664E73556A47655B61466454734A675977506851735F663F73296A4A650C611164117309675D775568527356664A73576A44655A61486433733D675777CA39011A5F662073336A4A655961486424733767577752685173576641735E6A47655B6141645D7332673E775868587349664673476A46655D61496452734267517724682D73596643735C6A226529614E642C7322675A775668547356664A73546A4265586144645D7326673E7758685073546642735C6A246521614E64557348671'
p60
sg39
I01
sg40
(dp61
sg42
I0
sg43
I00
sg44
I00
sg45
I01
sg46
I01
sg47
g26
sg48
Nsg49
Nsg50
I00
sbssssb.