ccopy_reg
_reconstructor
p0
(crequests.cookies
RequestsCookieJar
p1
c__builtin__
object
p2
Ntp3
Rp4
(dp5
S'_now'
p6
I1476848403
sS'_policy'
p7
(icookielib
DefaultCookiePolicy
p8
(dp9
S'strict_rfc2965_unverifiable'
p10
I01
sS'strict_ns_domain'
p11
I0
sS'_allowed_domains'
p12
NsS'rfc2109_as_netscape'
p13
NsS'rfc2965'
p14
I00
sS'strict_domain'
p15
I00
sg6
I1476848403
sS'strict_ns_set_path'
p16
I00
sS'strict_ns_unverifiable'
p17
I00
sS'strict_ns_set_initial_dollar'
p18
I00
sS'hide_cookie2'
p19
I00
sS'_blocked_domains'
p20
(tsS'netscape'
p21
I01
sbsS'_cookies'
p22
(dp23
S'.zhaopin.com'
p24
(dp25
S'/'
p26
(dp27
S'RDsUserInfo'
p28
(icookielib
Cookie
p29
(dp30
S'comment'
p31
NsS'domain'
p32
g24
sS'name'
p33
g28
sS'domain_initial_dot'
p34
I00
sS'expires'
p35
NsS'value'
p36
S'266120664E6156664361576640615366406154664A615466486128663D61596609610C6616610A6614611D661A610C6601615F6626612A664E610A6642615066436153664B615666466154661161156619615F66316120664E6155664761546644615C664161516643615F6631612A664E617335DF2F93F080167228D91FB51FF3036D0123F708378B325F66276129664E61556640615F66366129664E610C660161246607610C6606610A661761016601614A6610610B661E614A6610610A66486137662761596642615F66326130664E6155664361496642615D665361556642615E664761546648612066376159664261556641615466406150664761536642615F6637612A664E617335DF2F93F080167228D91FB51FF3036D0123F708378B32BF042BE142EB44035666486128663E6159664361546643615566436154664261576648612766376159664661576643615F66266130664E6155664361576648612766326159663061276642615066436153664B6156664661546641615F66376125664E612766306155664761546644615C66416151664361566637615D664361566646615466436155664161546643615466486120663061596642615F6620612D664E61576648612D66236159664161506641614A664261556643615F66326128664E61546648614'
p37
sS'domain_specified'
p38
I01
sS'_rest'
p39
(dp40
sS'version'
p41
I0
sS'port_specified'
p42
I00
sS'rfc2109'
p43
I00
sS'discard'
p44
I01
sS'path_specified'
p45
I01
sS'path'
p46
g26
sS'port'
p47
NsS'comment_url'
p48
NsS'secure'
p49
I00
sbssssb.