ccopy_reg
_reconstructor
p0
(crequests.cookies
RequestsCookieJar
p1
c__builtin__
object
p2
Ntp3
Rp4
(dp5
S'_policy'
p6
(icookielib
DefaultCookiePolicy
p7
(dp8
S'strict_rfc2965_unverifiable'
p9
I01
sS'strict_ns_domain'
p10
I0
sS'_allowed_domains'
p11
NsS'rfc2109_as_netscape'
p12
NsS'rfc2965'
p13
I00
sS'strict_domain'
p14
I00
sS'strict_ns_set_path'
p15
I00
sS'strict_ns_unverifiable'
p16
I00
sS'strict_ns_set_initial_dollar'
p17
I00
sS'hide_cookie2'
p18
I00
sS'_blocked_domains'
p19
(tsS'netscape'
p20
I01
sbsS'_cookies'
p21
(dp22
S'.zhaopin.com'
p23
(dp24
S'/'
p25
(dp26
S'xychkcontr'
p27
(icookielib
Cookie
p28
(dp29
S'comment'
p30
NsS'domain'
p31
S'.zhaopin.com'
p32
sS'secure'
p33
I00
sS'expires'
p34
NsS'domain_specified'
p35
I01
sS'_rest'
p36
(dp37
sS'path'
p38
g25
sS'port'
p39
NsS'rfc2109'
p40
I00
sS'name'
p41
g27
sS'domain_initial_dot'
p42
I01
sS'value'
p43
S'72454790%2c0'
p44
sS'version'
p45
I0
sS'port_specified'
p46
I00
sS'path_specified'
p47
I01
sS'discard'
p48
I01
sS'comment_url'
p49
NsbsS'JsOrglogin'
p50
(icookielib
Cookie
p51
(dp52
g30
Nsg31
g23
sg33
I00
sg34
I1477313484
sg35
I01
sg36
(dp53
sg38
g25
sg39
Nsg40
I00
sg41
g50
sg42
I01
sg43
S'2035912760'
p54
sg45
I0
sg46
I00
sg47
I01
sg48
I00
sg49
NsbsS'RDsUserInfo'
p55
(icookielib
Cookie
p56
(dp57
g30
Nsg31
S'.zhaopin.com'
p58
sg33
I00
sg34
Nsg35
I01
sg36
(dp59
sg38
g25
sg39
Nsg40
I00
sg41
g55
sg42
I01
sg43
S'347320735966456451734B675C775668567351735C6645645D733F67247758680A7301731C66066411731267047702680D7311730B66486435732767577754685A73267320664E64517341675E775068557353735D6643645D7332673E7758685073547349664164527353675B7752685B7351735566486427733F67577755685A73317325664E642C733E675D775D6857735773536646645E7345675C775E683473307359664264567341675177366828735973566648643'
p60
sg45
I0
sg46
I00
sg47
I01
sg48
I01
sg49
Nsbssssb.