ccopy_reg
_reconstructor
p0
(crequests.cookies
RequestsCookieJar
p1
c__builtin__
object
p2
Ntp3
Rp4
(dp5
S'_policy'
p6
(icookielib
DefaultCookiePolicy
p7
(dp8
S'strict_rfc2965_unverifiable'
p9
I01
sS'strict_ns_domain'
p10
I0
sS'_allowed_domains'
p11
NsS'rfc2109_as_netscape'
p12
NsS'rfc2965'
p13
I00
sS'strict_domain'
p14
I00
sS'strict_ns_set_path'
p15
I00
sS'strict_ns_unverifiable'
p16
I00
sS'strict_ns_set_initial_dollar'
p17
I00
sS'hide_cookie2'
p18
I00
sS'_blocked_domains'
p19
(tsS'netscape'
p20
I01
sbsS'_cookies'
p21
(dp22
S'.zhaopin.com'
p23
(dp24
S'/'
p25
(dp26
S'NewPinUserInfo'
p27
(icookielib
Cookie
p28
(dp29
S'comment'
p30
NsS'domain'
p31
S'.zhaopin.com'
p32
sS'secure'
p33
I00
sS'expires'
p34
NsS'domain_specified'
p35
I01
sS'_rest'
p36
(dp37
sS'path'
p38
g25
sS'port'
p39
NsS'rfc2109'
p40
I00
sS'name'
p41
g27
sS'domain_initial_dot'
p42
I00
sS'value'
p43
S''
p44
sS'version'
p45
I0
sS'port_specified'
p46
I00
sS'path_specified'
p47
I01
sS'discard'
p48
I01
sS'comment_url'
p49
NsbsS'client%2Dauth%2Dtoken'
p50
(icookielib
Cookie
p51
(dp52
g30
Nsg31
S'.zhaopin.com'
p53
sg33
I00
sg34
Nsg35
I01
sg36
(dp54
sg38
g25
sg39
Nsg40
I00
sg41
g50
sg42
I00
sg43
g44
sg45
I0
sg46
I00
sg47
I01
sg48
I01
sg49
NsbsS'cgmark'
p55
(icookielib
Cookie
p56
(dp57
g30
Nsg31
S'.zhaopin.com'
p58
sg33
I00
sg34
Nsg35
I01
sg36
(dp59
sg38
g25
sg39
Nsg40
I00
sg41
g55
sg42
I00
sg43
S'2'
p60
sg45
I0
sg46
I00
sg47
I01
sg48
I01
sg49
NsbsS'utype'
p61
(icookielib
Cookie
p62
(dp63
g30
Nsg31
S'.zhaopin.com'
p64
sg33
I00
sg34
I1481904000
sg35
I01
sg36
(dp65
sg38
g25
sg39
Nsg40
I00
sg41
g61
sg42
I00
sg43
S'0'
p66
sg45
I0
sg46
I00
sg47
I01
sg48
I00
sg49
NsbsS'isNewUser'
p67
(icookielib
Cookie
p68
(dp69
g30
Nsg31
S'.zhaopin.com'
p70
sg33
I00
sg34
Nsg35
I01
sg36
(dp71
sg38
g25
sg39
Nsg40
I00
sg41
g67
sg42
I00
sg43
S'1'
p72
sg45
I0
sg46
I00
sg47
I01
sg48
I01
sg49
NsbsS'RDsUserInfo'
p73
(icookielib
Cookie
p74
(dp75
g30
Nsg31
S'.zhaopin.com'
p76
sg33
I00
sg34
Nsg35
I01
sg36
(dp77
sg38
g25
sg39
Nsg40
I00
sg41
g73
sg42
I00
sg43
S'266422644E67416550735C66547350775C674164516444674C652B732A6659731D771C6707641F644367476556735F663173297758674864246437674A65527351665073557754674264546441674C6525732A6659737024C92999E557115A3EF03E360CB818E41148106C0023F20A358B344C6533732966597356772367486423643E674A6555735066517351775367336417640267596504730B6609735C77366727645B6442674C65267330665973567754675E64576444675765567352665E7352775E67376422644E674265527350665673567754674164546448673365297359667320CB398FE642114F3DF43C261ABB0DE4044B146E1035F11F359E3748673B652A73596654735777556742645D64306733655A735166577357775E67266432644E674665577357665F73247724674E64256430674265527350665673567754674164546446674C65237325665973247726674664536447674565567355665673557750674864226430674A6557735F6637732E77586740645D643A6727655A735666507355774B674264576442674C6526732866597357775E670'
p78
sg45
I0
sg46
I00
sg47
I01
sg48
I01
sg49
NsbsS'RDpUserInfo'
p79
(icookielib
Cookie
p80
(dp81
g30
Nsg31
S'.zhaopin.com'
p82
sg33
I00
sg34
Nsg35
I01
sg36
(dp83
sg38
g25
sg39
Nsg40
I00
sg41
g79
sg42
I00
sg43
g44
sg45
I0
sg46
I00
sg47
I01
sg48
I01
sg49
NsbsS'JsNewlogin'
p84
(icookielib
Cookie
p85
(dp86
g30
Nsg31
g23
sg33
I00
sg34
Nsg35
I01
sg36
(dp87
sg38
g25
sg39
Nsg40
I00
sg41
g84
sg42
I00
sg43
S'678079277'
p88
sg45
I0
sg46
I00
sg47
I01
sg48
I01
sg49
NsbsS'NewPinLoginInfo'
p89
(icookielib
Cookie
p90
(dp91
g30
Nsg31
S'.zhaopin.com'
p92
sg33
I00
sg34
Nsg35
I01
sg36
(dp93
sg38
g25
sg39
Nsg40
I00
sg41
g89
sg42
I00
sg43
g44
sg45
I0
sg46
I00
sg47
I01
sg48
I01
sg49
Nsbssssb.